target datalayout = "e-m:e-p270:32:32-p271:32:32-p272:64:64-i64:64-i128:128-f80:128-n8:16:32:64-S128"
target triple = "x86_64-pc-linux-gnu"

@.str.8 = private unnamed_addr constant [28 x i8] c"Couldn't send rumble packet\00", align 1

; Function Attrs: nounwind uwtable
define internal zeroext i1 @HIDAPI_DriverPS3_SendJoystickEffect(ptr noundef %0, ptr noundef %1, ptr noundef %2, i32 noundef %3) #0 {
  %5 = alloca i1, align 1
  %6 = alloca ptr, align 8
  %7 = alloca ptr, align 8
  %8 = alloca ptr, align 8
  %9 = alloca i32, align 4
  %10 = alloca [49 x i8], align 16
  %11 = alloca i32, align 4
  %12 = alloca i32, align 4
  %13 = alloca i32, align 4
  store ptr %0, ptr %6, align 8
  store ptr %1, ptr %7, align 8
  store ptr %2, ptr %8, align 8
  store i32 %3, ptr %9, align 4
  call void @llvm.lifetime.start.p0(i64 49, ptr %10) #7
  call void @llvm.lifetime.start.p0(i64 4, ptr %11) #7
  call void @llvm.lifetime.start.p0(i64 4, ptr %12) #7
  %14 = getelementptr inbounds [49 x i8], ptr %10, i64 0, i64 0
  call void @llvm.memset.p0.i64(ptr align 16 %14, i8 0, i64 49, i1 false)
  %15 = getelementptr inbounds [49 x i8], ptr %10, i64 0, i64 0
  store i8 1, ptr %15, align 16
  store i32 49, ptr %11, align 4
  store i32 1, ptr %12, align 4
  %16 = load i32, ptr %12, align 4
  %17 = sext i32 %16 to i64
  %18 = getelementptr inbounds [49 x i8], ptr %10, i64 0, i64 %17
  %19 = load ptr, ptr %8, align 8
  %20 = load i32, ptr %12, align 4
  %21 = sext i32 %20 to i64
  %22 = sub i64 49, %21
  %23 = load i32, ptr %9, align 4
  %24 = sext i32 %23 to i64
  %25 = icmp ult i64 %22, %24
  br i1 %25, label %26, label %30

26:                                               ; preds = %4
  %27 = load i32, ptr %12, align 4
  %28 = sext i32 %27 to i64
  %29 = sub i64 49, %28
  br label %33

30:                                               ; preds = %4
  %31 = load i32, ptr %9, align 4
  %32 = sext i32 %31 to i64
  br label %33

33:                                               ; preds = %30, %26
  %34 = phi i64 [ %29, %26 ], [ %32, %30 ]
  call void @llvm.memcpy.p0.p0.i64(ptr align 1 %18, ptr align 1 %19, i64 %34, i1 false)
  %35 = load ptr, ptr %6, align 8
  %36 = getelementptr inbounds [49 x i8], ptr %10, i64 0, i64 0
  %37 = load i32, ptr %11, align 4
  %38 = call i32 @SDL_HIDAPI_SendRumble(ptr noundef %35, ptr noundef %36, i32 noundef %37)
  %39 = load i32, ptr %11, align 4
  %40 = icmp ne i32 %38, %39
  br i1 %40, label %41, label %43

41:                                               ; preds = %33
  %42 = call zeroext i1 (ptr, ...) @SDL_SetError_REAL(ptr noundef @.str.8)
  store i1 %42, ptr %5, align 1
  store i32 1, ptr %13, align 4
  br label %44

43:                                               ; preds = %33
  store i1 true, ptr %5, align 1
  store i32 1, ptr %13, align 4
  br label %44

44:                                               ; preds = %43, %41
  call void @llvm.lifetime.end.p0(i64 4, ptr %12) #7
  call void @llvm.lifetime.end.p0(i64 4, ptr %11) #7
  call void @llvm.lifetime.end.p0(i64 49, ptr %10) #7
  %45 = load i1, ptr %5, align 1
  ret i1 %45
}