; Function Attrs: nounwind uwtable
define internal zeroext i1 @HIDAPI_DriverPS3_SendJoystickEffect(ptr noundef %0, ptr readnone captures(none) %1, ptr noundef readonly captures(none) %2, i32 noundef %3) #0 {
  %5 = alloca [49 x i8], align 16
  call void @llvm.lifetime.start.p0(i64 49, ptr nonnull %5) #10
  call void @llvm.memset.p0.i64(ptr noundef nonnull align 16 dereferenceable(49) %5, i8 0, i64 49, i1 false)
  store i8 1, ptr %5, align 16
  %6 = getelementptr inbounds nuw i8, ptr %5, i64 1
  %7 = tail call i32 @llvm.umin.i32(i32 %3, i32 48)
  %8 = zext nneg i32 %7 to i64
  call void @llvm.memcpy.p0.p0.i64(ptr nonnull align 1 %6, ptr align 1 %2, i64 %8, i1 false)
  %9 = call i32 @SDL_HIDAPI_SendRumble(ptr noundef %0, ptr noundef nonnull %5, i32 noundef 49) #10
  %.not = icmp eq i32 %9, 49
  br i1 %.not, label %12, label %10

10:                                               ; preds = %4
  %11 = call zeroext i1 (ptr, ...) @SDL_SetError_REAL(ptr noundef nonnull @.str.8) #10
  br label %12

12:                                               ; preds = %4, %10
  %.0 = phi i1 [ %11, %10 ], [ true, %4 ]
  call void @llvm.lifetime.end.p0(i64 49, ptr nonnull %5) #10
  ret i1 %.0
}